Certificate:
    Data:
        Version: 3 (0x2)
        Serial Number:
            1a:63:f6:21:fd:ad:73:e7:a7:d1:a8:ad:c3:7b:19:f8
    Signature Algorithm: sha256WithRSAEncryption
        Issuer: CN=ITS-VPN-CA
        Validity
            Not Before: Aug  8 20:36:39 2019 GMT
            Not After : Aug  5 20:36:39 2029 GMT
        Subject: CN=vpn-server
        Subject Public Key Info:
            Public Key Algorithm: rsaEncryption
                Public-Key: (2048 bit)
                Modulus:
                    00:cb:34:f2:a3:84:dd:4f:d3:74:a5:88:6c:25:92:
                    f2:4a:f7:c6:a1:f3:75:a0:0d:fd:11:7a:98:d8:fc:
                    6b:0a:61:43:15:e6:6b:cb:1f:73:c8:c2:98:9a:bf:
                    10:9f:5c:14:73:39:e7:12:66:d1:3c:86:95:9b:da:
                    98:49:81:ee:07:c5:b1:27:a7:39:11:1b:6b:56:30:
                    ff:23:e0:3a:04:aa:4b:d8:1a:e7:4e:27:30:ea:b4:
                    6e:bb:99:df:4c:4b:66:01:60:f6:a0:99:70:0d:e2:
                    e1:91:3e:66:0d:a4:64:01:a8:ea:6c:87:95:e4:77:
                    67:94:f3:4e:01:00:e4:09:0b:4b:5a:0b:2a:bc:27:
                    53:f6:1b:af:67:9a:ea:1b:10:e4:35:f1:87:bf:1b:
                    48:b4:02:5c:82:44:fe:fc:bf:ff:d5:ca:9d:3b:b9:
                    75:71:57:27:58:2d:1b:3a:58:63:1b:88:6d:c1:02:
                    55:be:2b:aa:7f:9f:99:df:5e:22:87:09:33:4f:42:
                    47:d2:6f:d8:2f:22:38:0d:32:4a:92:c9:f7:2a:f2:
                    68:f3:f6:ea:75:65:cd:5f:b3:06:80:f8:eb:56:6a:
                    47:4c:58:53:38:c0:55:87:47:c4:84:7e:f4:94:3c:
                    8c:8d:ae:fc:f7:cf:3b:b5:ff:3b:42:54:50:a1:48:
                    67:03
                Exponent: 65537 (0x10001)
        X509v3 extensions:
            X509v3 Basic Constraints: 
                CA:FALSE
            X509v3 Subject Key Identifier: 
                B8:C9:D9:00:6D:D6:07:C1:6F:8D:BD:24:75:DA:0E:D6:78:FF:A1:32
            X509v3 Authority Key Identifier: 
                keyid:ED:7C:39:51:FF:D4:46:FB:53:77:6A:A1:C1:43:68:74:BA:99:D6:B4
                DirName:/CN=ITS-VPN-CA
                serial:AB:D5:D1:62:28:34:0D:80

            X509v3 Extended Key Usage: 
                TLS Web Server Authentication
            X509v3 Key Usage: 
                Digital Signature, Key Encipherment
            X509v3 Subject Alternative Name: 
                DNS:vpn-server
    Signature Algorithm: sha256WithRSAEncryption
         49:5a:8c:2a:2f:3e:d2:d2:54:6b:2f:b5:3f:86:2d:a7:fa:d9:
         d2:0e:70:b1:bf:a9:b3:fb:71:12:75:a1:15:2b:b5:92:4c:3c:
         30:86:72:2c:34:57:0f:47:12:76:9a:90:be:96:f6:bb:e3:e3:
         7a:e2:db:51:69:93:02:61:f7:d6:1b:5a:c3:25:ff:ca:f2:6d:
         49:f8:4b:f3:40:9d:cb:3b:7c:b0:b9:cd:b1:54:95:51:c6:88:
         0a:19:f4:d1:3a:a6:f3:4d:b5:5b:3f:57:f5:89:2a:a4:51:a7:
         84:17:52:ff:cd:19:29:4b:bc:11:ee:ba:25:b8:70:36:18:ae:
         16:39:46:4a:31:93:8b:bc:bd:d0:51:b9:27:ee:15:20:dc:cd:
         c3:56:e1:93:11:db:40:71:0c:e9:d8:55:fb:63:b6:6a:b7:ab:
         e3:6e:fa:34:10:6f:a3:ae:ef:00:3e:88:2e:5f:77:84:99:aa:
         fd:6b:5c:2d:98:66:99:6a:ae:7a:05:a2:fa:9e:84:7b:39:cd:
         db:a4:51:c3:f9:ff:18:7c:7a:2c:08:64:2f:2b:54:7c:74:f7:
         cf:d8:4b:33:5a:7c:2a:81:22:ed:80:b5:82:4c:ab:f7:2c:ed:
         bb:33:96:70:77:ad:1d:0e:94:a2:57:66:7a:b9:7f:f8:64:01:
         58:82:23:b4
-----BEGIN CERTIFICATE-----
MIIDYjCCAkqgAwIBAgIQGmP2If2tc+en0aitw3sZ+DANBgkqhkiG9w0BAQsFADAV
MRMwEQYDVQQDDApJVFMtVlBOLUNBMB4XDTE5MDgwODIwMzYzOVoXDTI5MDgwNTIw
MzYzOVowFTETMBEGA1UEAwwKdnBuLXNlcnZlcjCCASIwDQYJKoZIhvcNAQEBBQAD
ggEPADCCAQoCggEBAMs08qOE3U/TdKWIbCWS8kr3xqHzdaAN/RF6mNj8awphQxXm
a8sfc8jCmJq/EJ9cFHM55xJm0TyGlZvamEmB7gfFsSenOREba1Yw/yPgOgSqS9ga
504nMOq0bruZ30xLZgFg9qCZcA3i4ZE+Zg2kZAGo6myHleR3Z5TzTgEA5AkLS1oL
KrwnU/Ybr2ea6hsQ5DXxh78bSLQCXIJE/vy//9XKnTu5dXFXJ1gtGzpYYxuIbcEC
Vb4rqn+fmd9eIocJM09CR9Jv2C8iOA0ySpLJ9yryaPP26nVlzV+zBoD461ZqR0xY
UzjAVYdHxIR+9JQ8jI2u/PfPO7X/O0JUUKFIZwMCAwEAAaOBrTCBqjAJBgNVHRME
AjAAMB0GA1UdDgQWBBS4ydkAbdYHwW+NvSR12g7WeP+hMjBFBgNVHSMEPjA8gBTt
fDlR/9RG+1N3aqHBQ2h0upnWtKEZpBcwFTETMBEGA1UEAwwKSVRTLVZQTi1DQYIJ
AKvV0WIoNA2AMBMGA1UdJQQMMAoGCCsGAQUFBwMBMAsGA1UdDwQEAwIFoDAVBgNV
HREEDjAMggp2cG4tc2VydmVyMA0GCSqGSIb3DQEBCwUAA4IBAQBJWowqLz7S0lRr
L7U/hi2n+tnSDnCxv6mz+3ESdaEVK7WSTDwwhnIsNFcPRxJ2mpC+lva74+N64ttR
aZMCYffWG1rDJf/K8m1J+EvzQJ3LO3ywuc2xVJVRxogKGfTROqbzTbVbP1f1iSqk
UaeEF1L/zRkpS7wR7roluHA2GK4WOUZKMZOLvL3QUbkn7hUg3M3DVuGTEdtAcQzp
2FX7Y7Zqt6vjbvo0EG+jru8APoguX3eEmar9a1wtmGaZaq56BaL6noR7Oc3bpFHD
+f8YfHosCGQvK1R8dPfP2EszWnwqgSLtgLWCTKv3LO27M5Zwd60dDpSiV2Z6uX/4
ZAFYgiO0
-----END CERTIFICATE-----
